(lp1
(lp2
cnumpy.core.multiarray
scalar
p3
(cnumpy
dtype
p4
(S'f8'
I0
I1
tRp5
(I3
S'<'
NNNI-1
I-1
I0
tbS'B\xb5\xc8n\xb5{)@'
tRp6
aF-0.76040336977852785
aa(lp7
g3
(g5
S'b,\x81\xc6*eH@'
tRp8
aF-0.78539816339744783
aa(lp9
g3
(g5
S'\x9d]\xd4#P\xbbQ@'
tRp10
aF-0.68892438821486168
aa(lp11
g3
(g5
S'\xeb\xe89\xb8O\xafa@'
tRp12
aF-0.80580349408398655
aa(lp13
g3
(g5
S'~\xe5\x9eFX\xceb@'
tRp14
aF-0.80978357257016642
aa(lp15
g3
(g5
S'\xcb\xe3b\xc1a\x08j@'
tRp16
aF-0.91794969569412133
aa(lp17
g3
(g5
S'\t\xbf\x8eL\x04\x97n@'
tRp18
aF-0.87213650207343252
aa(lp19
g3
(g5
S'}\xafI\xa3y\x17q@'
tRp20
aF-0.98279372324732783
aa(lp21
g3
(g5
S'\xbb\xcdM\xe8\xd0\xc6s@'
tRp22
aF-0.81103357191912562
aa(lp23
g3
(g5
S'\xaa\xc2\xe4\xd4\xf8\xd4u@'
tRp24
aF-0.78539816339744739
aa(lp25
g3
(g5
S'\xd9\xfc0\xeb\xe6jx@'
tRp26
aF-0.85196632717327225
aa(lp27
g3
(g5
S'\xab\x8d\xb5\xd6\x93\xb1{@'
tRp28
aF-0.81241861258471437
aa(lp29
g3
(g5
S'\xe5o\x11\xbd\x1bR}@'
tRp30
aF-0.94677327381814058
aa(lp31
g3
(g5
S'\x96\xba\xb0\xad\xeb/\x7f@'
tRp32
aF-0.84781697339340556
aa(lp33
g3
(g5
S"\xc6\xc7uY\xde'\x81@"
tRp34
aF-0.91510070055336212
aa(lp35
g3
(g5
S'\x12bzv?5\x82@'
tRp36
aF-0.78539816339744906
aa(lp37
g3
(g5
S'\xfd%\xb13\xcet\x85@'
tRp38
aF-0.78539816339744695
aa(lp39
g3
(g5
S'\xc2|\xb5\xda\xce\xa8\x87@'
tRp40
aF-0.70449406424221583
aa(lp41
g3
(g5
S'\x06\xf4\xc5\xc9p\xc82@'
tRp42
aF-0.46364760900080637
aa(lp43
g3
(g5
S'\xb3U-@\x92\xa1\x90@'
tRp44
aF0.60780199611395735
aa(lp45
g3
(g5
S'3\xe4\x84\x19\x8eR\x93@'
tRp46
aF0.56331626149197089
aa(lp47
g3
(g5
S'Xg]\xda=>\x95@'
tRp48
aF0.35299038782690961
aa(lp49
g3
(g5
S'\xfc \xcf\x07&$q@'
tRp50
aF0.88847977192014849
aa(lp51
g3
(g5
S'\x1f\x843\x99\xaf\x81u@'
tRp52
aF0.84089666864316548
aa(lp53
g3
(g5
S'\xf4p\x00\x04\xdf~z@'
tRp54
aF0.81396182123620842
aa(lp55
g3
(g5
S'\xe3\xa7t\x86\xdd\x14\x81@'
tRp56
aF0.89605538457134459
aa(lp57
g3
(g5
S'\xe7\t\xf9f\x96a\x81@'
tRp58
aF0.88187193858003476
aa(lp59
g3
(g5
S'\x1c\x8c\xa7\x02\\\xb6\x85@'
tRp60
aF0.81986726439695568
aa(lp61
g3
(g5
S'\xa1\xb5b&\xc5<\x8b@'
tRp62
aF0.74645682030040872
aa(lp63
g3
(g5
S'\xb7\xc66\xc5\x80\x86\x90@'
tRp64
aF0.71235759809432619
aa(lp65
g3
(g5
S'\x90Q\x89\x1e\xb0Du@'
tRp66
aF0.97237743331636006
aa(lp67
g3
(g5
S'C\xa5vS\xbf\xebx@'
tRp68
aF1.0303768265243132
aa(lp69
g3
(g5
S'I\xe5r\xfb\x16\x1c{@'
tRp70
aF0.93576959140458293
aa(lp71
g3
(g5
S'>cj&\x94\xd7\x80@'
tRp72
aF0.93804749179271241
aa(lp73
g3
(g5
S'\x00b\xdf\xccv\xf8\x00@'
tRp74
aF2.3561944901923462
aa(lp75
g3
(g5
S'\xa4b\x97\xa6F\x93D@'
tRp76
aF2.5393053074548302
aa(lp77
g3
(g5
S'\x0f\xe6*3\x9b\x1aU@'
tRp78
aF2.4837040484075823
aa(lp79
g3
(g5
S'\xbd\x1fd\x8bs|d@'
tRp80
aF2.6078844619505319
aa(lp81
g3
(g5
S'\x04\x9fz\x8e\n\x9cd@'
tRp82
aF2.8068558162729786
aa.