(lp1
(lp2
cnumpy.core.multiarray
scalar
p3
(cnumpy
dtype
p4
(S'f8'
I0
I1
tRp5
(I3
S'<'
NNNI-1
I-1
I0
tbS"'T\xaf\x99\x8a\xccC@"
tRp6
aF-0.78539816339744839
aa(lp7
g3
(g5
S'\xb5\x9a\x85\xadr\xa7R@'
tRp8
aF-0.75092906239793911
aa(lp9
g3
(g5
S' \xee\xe9\xbbi\xb5X@'
tRp10
aF-0.69989286971924414
aa(lp11
g3
(g5
S'kW\xcbT\xa2\xb6f@'
tRp12
aF-0.81569192331622242
aa(lp13
g3
(g5
S'\xe6\x0f\xd0\x1a\xb4qi@'
tRp14
aF-0.79873070669159285
aa(lp15
g3
(g5
S'D\xea\x1f!\x92\x11p@'
tRp16
aF-0.88187193858003665
aa(lp17
g3
(g5
S'\x97u}i\xfd\xfeq@'
tRp18
aF-0.86630226255267562
aa(lp19
g3
(g5
S']E\x14\xa5\xc1ns@'
tRp20
aF-0.84415398611317072
aa(lp21
g3
(g5
S'\xd5C\x94\xf5\xa0\x14v@'
tRp22
aF-0.80357797847042567
aa(lp23
g3
(g5
S'\x8a\xb1\xb3q\xc6\xc6w@'
tRp24
aF-0.78539816339744839
aa(lp25
g3
(g5
S'\xba:\t\xe8=l|@'
tRp26
aF-0.81986726439695645
aa(lp27
g3
(g5
S'\xcb\xf3!\x90\x98\xef~@'
tRp28
aF-0.78539816339744772
aa(lp29
g3
(g5
S'm]\xe1,\x03\xbd\x82@'
tRp30
aF-0.78539816339744939
aa(lp31
g3
(g5
S'"\xef\xedS\x04\xb6)@'
tRp32
aF-0.57790193696224523
aa(lp33
g3
(g5
S'\xdb\xd2\xd2\xd2\xd2RG@'
tRp34
aF-0.48995732625372801
aa(lp35
g3
(g5
S'~F\xeaa\x98-\x91@'
tRp36
aF0.6327488350021846
aa(lp37
g3
(g5
S'\xbf8K\xe0\xcd\xea\x93@'
tRp38
aF0.58800260354757128
aa(lp39
g3
(g5
S'"\xc1[\xb2\xcc\x82q@'
tRp40
aF0.83082144281902481
aa(lp41
g3
(g5
S'\xdc\xbcr;\xd7[v@'
tRp42
aF0.8884797719201486
aa(lp43
g3
(g5
S'Z\xf6e\x1b^3|@'
tRp44
aF0.93804749179271407
aa(lp45
g3
(g5
S'\xb0tlqC\xb3\x81@'
tRp46
aF0.81871915927569594
aa(lp47
g3
(g5
S'\x0f<\xeeUj,\x82@'
tRp48
aF0.8884797719201466
aa(lp49
g3
(g5
S'4\xc7\x9a\xef\xe0\xc7\x86@'
tRp50
aF0.83988961963817854
aa(lp51
g3
(g5
S'\x98Ce6\xd0]\x8c@'
tRp52
aF0.75315128096219441
aa(lp53
g3
(g5
S'X\xb0\xcc\xd4\xd1\x07#@'
tRp54
aF2.5269297016676271
aa(lp55
g3
(g5
S'Y\xbd\xd0/f\xccN@'
tRp56
aF2.6992184306130476
aa(lp57
g3
(g5
S'\xdc;I\xfb\xbaCZ@'
tRp58
aF2.6387494426619318
aa(lp59
g3
(g5
S'\xc1\xd2\xa3\xa5\xa5va@'
tRp60
aF2.5829933382462293
aa.